target datalayout = "e-m:e-p270:32:32-p271:32:32-p272:64:64-i64:64-i128:128-f80:128-n8:16:32:64-S128"
target triple = "x86_64-unknown-linux-gnu"

%"class.QuantLib::LPP2HestonExpansion" = type { %"class.QuantLib::HestonExpansion", [3 x double], double, double, double, double }
%"class.QuantLib::HestonExpansion" = type { ptr }

; Function Attrs: inlinehint mustprogress nounwind uwtable
define linkonce_odr noundef double @_ZSt3powIdiEN9__gnu_cxx9__promoteIDTplcvNS1_IT_Xsr3std12__is_integerIS2_EE7__valueEE6__typeELi0EcvNS1_IT0_Xsr3std12__is_integerIS5_EE7__valueEE6__typeELi0EEXsr3std12__is_integerIS8_EE7__valueEE6__typeES2_S5_(double noundef %__x, i32 noundef %__y) #5 comdat {
entry:
  %__x.addr = alloca double, align 8
  %__y.addr = alloca i32, align 4
  store double %__x, ptr %__x.addr, align 8, !tbaa !53
  store i32 %__y, ptr %__y.addr, align 4, !tbaa !54
  %0 = load double, ptr %__x.addr, align 8, !tbaa !53
  %1 = load i32, ptr %__y.addr, align 4, !tbaa !54
  %conv = sitofp i32 %1 to double
  %call = call double @pow(double noundef %0, double noundef %conv) #13, !tbaa !54
  ret double %call
}

; Function Attrs: mustprogress nounwind uwtable
define internal noundef double @_ZN8QuantLibL7fastpowEdi(double noundef %x, i32 noundef %y) #1 {
entry:
  %x.addr = alloca double, align 8
  %y.addr = alloca i32, align 4
  store double %x, ptr %x.addr, align 8, !tbaa !53
  store i32 %y, ptr %y.addr, align 4, !tbaa !54
  %0 = load double, ptr %x.addr, align 8, !tbaa !53
  %1 = load i32, ptr %y.addr, align 4, !tbaa !54
  %call = call noundef double @_ZSt3powIdiEN9__gnu_cxx9__promoteIDTplcvNS1_IT_Xsr3std12__is_integerIS2_EE7__valueEE6__typeELi0EcvNS1_IT0_Xsr3std12__is_integerIS5_EE7__valueEE6__typeELi0EEXsr3std12__is_integerIS8_EE7__valueEE6__typeES2_S5_(double noundef %0, i32 noundef %1)
  ret double %call
}

; Function Attrs: mustprogress uwtable
define noundef double @_ZNK8QuantLib19LPP2HestonExpansion2z1Edddddd(ptr noundef nonnull align 8 dereferenceable(64) %this, double noundef %t, double noundef %kappa, double noundef %theta, double noundef %delta, double noundef %y, double noundef %rho) #2 align 2 {
entry:
  %this.addr = alloca ptr, align 8
  %t.addr = alloca double, align 8
  %kappa.addr = alloca double, align 8
  %theta.addr = alloca double, align 8
  %delta.addr = alloca double, align 8
  %y.addr = alloca double, align 8
  %rho.addr = alloca double, align 8
  store ptr %this, ptr %this.addr, align 8, !tbaa !3
  store double %t, ptr %t.addr, align 8, !tbaa !53
  store double %kappa, ptr %kappa.addr, align 8, !tbaa !53
  store double %theta, ptr %theta.addr, align 8, !tbaa !53
  store double %delta, ptr %delta.addr, align 8, !tbaa !53
  store double %y, ptr %y.addr, align 8, !tbaa !53
  store double %rho, ptr %rho.addr, align 8, !tbaa !53
  %this1 = load ptr, ptr %this.addr, align 8
  %0 = load double, ptr %delta.addr, align 8, !tbaa !53
  %1 = load double, ptr %rho.addr, align 8, !tbaa !53
  %mul = fmul double %0, %1
  %2 = load double, ptr %delta.addr, align 8, !tbaa !53
  %ekt = getelementptr inbounds nuw %"class.QuantLib::LPP2HestonExpansion", ptr %this1, i32 0, i32 2
  %3 = load double, ptr %ekt, align 8, !tbaa !84
  %add = fadd double -1.000000e+00, %3
  %call = call noundef double @_ZN8QuantLibL7fastpowEdi(double noundef %add, i32 noundef 2)
  %mul2 = fmul double %2, %call
  %4 = load double, ptr %rho.addr, align 8, !tbaa !53
  %mul3 = fmul double %mul2, %4
  %5 = load double, ptr %theta.addr, align 8, !tbaa !53
  %6 = load double, ptr %y.addr, align 8, !tbaa !53
  %neg = fneg double %6
  %7 = call double @llvm.fmuladd.f64(double 4.000000e+00, double %5, double %neg)
  %mul5 = fmul double %mul3, %7
  %8 = load double, ptr %y.addr, align 8, !tbaa !53
  %ekt7 = getelementptr inbounds nuw %"class.QuantLib::LPP2HestonExpansion", ptr %this1, i32 0, i32 2
  %9 = load double, ptr %ekt7, align 8, !tbaa !84
  %mul8 = fmul double 2.000000e+00, %9
  %10 = load double, ptr %kappa.addr, align 8, !tbaa !53
  %call9 = call noundef double @_ZN8QuantLibL7fastpowEdi(double noundef %10, i32 noundef 3)
  %mul10 = fmul double %mul8, %call9
  %11 = load double, ptr %t.addr, align 8, !tbaa !53
  %call11 = call noundef double @_ZN8QuantLibL7fastpowEdi(double noundef %11, i32 noundef 2)
  %mul12 = fmul double %mul10, %call11
  %12 = load double, ptr %theta.addr, align 8, !tbaa !53
  %mul13 = fmul double %mul12, %12
  %ekt14 = getelementptr inbounds nuw %"class.QuantLib::LPP2HestonExpansion", ptr %this1, i32 0, i32 2
  %13 = load double, ptr %ekt14, align 8, !tbaa !84
  %14 = call double @llvm.fmuladd.f64(double 2.000000e+00, double %13, double 2.000000e+00)
  %15 = load double, ptr %delta.addr, align 8, !tbaa !53
  %16 = load double, ptr %rho.addr, align 8, !tbaa !53
  %mul16 = fmul double %15, %16
  %17 = load double, ptr %t.addr, align 8, !tbaa !53
  %18 = call double @llvm.fmuladd.f64(double %mul16, double %17, double %14)
  %19 = load double, ptr %theta.addr, align 8, !tbaa !53
  %20 = load double, ptr %delta.addr, align 8, !tbaa !53
  %21 = load double, ptr %rho.addr, align 8, !tbaa !53
  %mul19 = fmul double %20, %21
  %22 = load double, ptr %t.addr, align 8, !tbaa !53
  %23 = call double @llvm.fmuladd.f64(double %mul19, double %22, double 2.000000e+00)
  %24 = load double, ptr %y.addr, align 8, !tbaa !53
  %mul21 = fmul double %23, %24
  %neg22 = fneg double %mul21
  %25 = call double @llvm.fmuladd.f64(double %18, double %19, double %neg22)
  %mul23 = fmul double %mul13, %25
  %neg24 = fneg double %mul5
  %26 = call double @llvm.fmuladd.f64(double %neg24, double %8, double %mul23)
  %ekt25 = getelementptr inbounds nuw %"class.QuantLib::LPP2HestonExpansion", ptr %this1, i32 0, i32 2
  %27 = load double, ptr %ekt25, align 8, !tbaa !84
  %add26 = fadd double -1.000000e+00, %27
  %mul27 = fmul double 2.000000e+00, %add26
  %28 = load double, ptr %kappa.addr, align 8, !tbaa !53
  %mul28 = fmul double %mul27, %28
  %29 = load double, ptr %theta.addr, align 8, !tbaa !53
  %30 = load double, ptr %y.addr, align 8, !tbaa !53
  %neg30 = fneg double %30
  %31 = call double @llvm.fmuladd.f64(double 2.000000e+00, double %29, double %neg30)
  %mul31 = fmul double %mul28, %31
  %ekt32 = getelementptr inbounds nuw %"class.QuantLib::LPP2HestonExpansion", ptr %this1, i32 0, i32 2
  %32 = load double, ptr %ekt32, align 8, !tbaa !84
  %add33 = fadd double -1.000000e+00, %32
  %33 = load double, ptr %delta.addr, align 8, !tbaa !53
  %34 = load double, ptr %rho.addr, align 8, !tbaa !53
  %mul34 = fmul double %33, %34
  %35 = load double, ptr %t.addr, align 8, !tbaa !53
  %36 = call double @llvm.fmuladd.f64(double %mul34, double %35, double -2.000000e+00)
  %mul36 = fmul double %add33, %36
  %37 = load double, ptr %theta.addr, align 8, !tbaa !53
  %ekt38 = getelementptr inbounds nuw %"class.QuantLib::LPP2HestonExpansion", ptr %this1, i32 0, i32 2
  %38 = load double, ptr %ekt38, align 8, !tbaa !84
  %39 = call double @llvm.fmuladd.f64(double 2.000000e+00, double %38, double -2.000000e+00)
  %40 = load double, ptr %delta.addr, align 8, !tbaa !53
  %41 = load double, ptr %rho.addr, align 8, !tbaa !53
  %mul40 = fmul double %40, %41
  %42 = load double, ptr %t.addr, align 8, !tbaa !53
  %43 = call double @llvm.fmuladd.f64(double %mul40, double %42, double %39)
  %44 = load double, ptr %y.addr, align 8, !tbaa !53
  %mul42 = fmul double %43, %44
  %45 = call double @llvm.fmuladd.f64(double %mul36, double %37, double %mul42)
  %neg44 = fneg double %mul31
  %46 = call double @llvm.fmuladd.f64(double %neg44, double %45, double %26)
  %47 = load double, ptr %kappa.addr, align 8, !tbaa !53
  %call45 = call noundef double @_ZN8QuantLibL7fastpowEdi(double noundef %47, i32 noundef 2)
  %48 = load double, ptr %t.addr, align 8, !tbaa !53
  %mul46 = fmul double %call45, %48
  %ekt47 = getelementptr inbounds nuw %"class.QuantLib::LPP2HestonExpansion", ptr %this1, i32 0, i32 2
  %49 = load double, ptr %ekt47, align 8, !tbaa !84
  %add48 = fadd double -1.000000e+00, %49
  %50 = load double, ptr %delta.addr, align 8, !tbaa !53
  %51 = load double, ptr %rho.addr, align 8, !tbaa !53
  %mul49 = fmul double %50, %51
  %52 = load double, ptr %t.addr, align 8, !tbaa !53
  %53 = call double @llvm.fmuladd.f64(double %mul49, double %52, double -4.000000e+00)
  %ekt51 = getelementptr inbounds nuw %"class.QuantLib::LPP2HestonExpansion", ptr %this1, i32 0, i32 2
  %54 = load double, ptr %ekt51, align 8, !tbaa !84
  %55 = load double, ptr %delta.addr, align 8, !tbaa !53
  %56 = load double, ptr %rho.addr, align 8, !tbaa !53
  %mul52 = fmul double %55, %56
  %57 = load double, ptr %t.addr, align 8, !tbaa !53
  %58 = call double @llvm.fmuladd.f64(double %mul52, double %57, double -1.200000e+01)
  %59 = call double @llvm.fmuladd.f64(double %54, double %58, double %53)
  %mul55 = fmul double %add48, %59
  %60 = load double, ptr %theta.addr, align 8, !tbaa !53
  %call56 = call noundef double @_ZN8QuantLibL7fastpowEdi(double noundef %60, i32 noundef 2)
  %e2kt = getelementptr inbounds nuw %"class.QuantLib::LPP2HestonExpansion", ptr %this1, i32 0, i32 3
  %61 = load double, ptr %e2kt, align 8, !tbaa !87
  %62 = call double @llvm.fmuladd.f64(double 4.000000e+00, double %61, double -4.000000e+00)
  %63 = load double, ptr %delta.addr, align 8, !tbaa !53
  %64 = load double, ptr %rho.addr, align 8, !tbaa !53
  %mul59 = fmul double %63, %64
  %65 = load double, ptr %t.addr, align 8, !tbaa !53
  %66 = call double @llvm.fmuladd.f64(double %mul59, double %65, double %62)
  %67 = load double, ptr %delta.addr, align 8, !tbaa !53
  %mul61 = fmul double 3.000000e+00, %67
  %ekt62 = getelementptr inbounds nuw %"class.QuantLib::LPP2HestonExpansion", ptr %this1, i32 0, i32 2
  %68 = load double, ptr %ekt62, align 8, !tbaa !84
  %mul63 = fmul double %mul61, %68
  %69 = load double, ptr %rho.addr, align 8, !tbaa !53
  %mul64 = fmul double %mul63, %69
  %70 = load double, ptr %t.addr, align 8, !tbaa !53
  %71 = call double @llvm.fmuladd.f64(double %mul64, double %70, double %66)
  %mul66 = fmul double 2.000000e+00, %71
  %72 = load double, ptr %theta.addr, align 8, !tbaa !53
  %mul67 = fmul double %mul66, %72
  %73 = load double, ptr %y.addr, align 8, !tbaa !53
  %mul68 = fmul double %mul67, %73
  %74 = call double @llvm.fmuladd.f64(double %mul55, double %call56, double %mul68)
  %75 = load double, ptr %delta.addr, align 8, !tbaa !53
  %76 = load double, ptr %rho.addr, align 8, !tbaa !53
  %mul69 = fmul double %75, %76
  %77 = load double, ptr %t.addr, align 8, !tbaa !53
  %78 = call double @llvm.fmuladd.f64(double %mul69, double %77, double -4.000000e+00)
  %ekt71 = getelementptr inbounds nuw %"class.QuantLib::LPP2HestonExpansion", ptr %this1, i32 0, i32 2
  %79 = load double, ptr %ekt71, align 8, !tbaa !84
  %mul72 = fmul double 2.000000e+00, %79
  %80 = load double, ptr %delta.addr, align 8, !tbaa !53
  %81 = load double, ptr %rho.addr, align 8, !tbaa !53
  %mul73 = fmul double %80, %81
  %82 = load double, ptr %t.addr, align 8, !tbaa !53
  %83 = call double @llvm.fmuladd.f64(double %mul73, double %82, double 2.000000e+00)
  %84 = call double @llvm.fmuladd.f64(double %mul72, double %83, double %78)
  %85 = load double, ptr %y.addr, align 8, !tbaa !53
  %call76 = call noundef double @_ZN8QuantLibL7fastpowEdi(double noundef %85, i32 noundef 2)
  %neg78 = fneg double %84
  %86 = call double @llvm.fmuladd.f64(double %neg78, double %call76, double %74)
  %87 = call double @llvm.fmuladd.f64(double %mul46, double %86, double %46)
  %mul80 = fmul double %mul, %87
  %88 = load double, ptr %kappa.addr, align 8, !tbaa !53
  %call81 = call noundef double @_ZN8QuantLibL7fastpowEdi(double noundef %88, i32 noundef 2)
  %mul82 = fmul double 8.000000e+00, %call81
  %89 = load double, ptr %t.addr, align 8, !tbaa !53
  %mul83 = fmul double %mul82, %89
  %90 = load double, ptr %theta.addr, align 8, !tbaa !53
  %fneg = fneg double %90
  %91 = load double, ptr %kappa.addr, align 8, !tbaa !53
  %92 = load double, ptr %t.addr, align 8, !tbaa !53
  %mul84 = fmul double %91, %92
  %93 = load double, ptr %theta.addr, align 8, !tbaa !53
  %94 = call double @llvm.fmuladd.f64(double %mul84, double %93, double %fneg)
  %95 = load double, ptr %theta.addr, align 8, !tbaa !53
  %96 = load double, ptr %y.addr, align 8, !tbaa !53
  %sub = fsub double %95, %96
  %ekt86 = getelementptr inbounds nuw %"class.QuantLib::LPP2HestonExpansion", ptr %this1, i32 0, i32 2
  %97 = load double, ptr %ekt86, align 8, !tbaa !84
  %div = fdiv double %sub, %97
  %add87 = fadd double %94, %div
  %98 = load double, ptr %y.addr, align 8, !tbaa !53
  %add88 = fadd double %add87, %98
  %99 = load double, ptr %kappa.addr, align 8, !tbaa !53
  %100 = load double, ptr %t.addr, align 8, !tbaa !53
  %mul89 = fmul double %99, %100
  %div90 = fdiv double %add88, %mul89
  %call91 = call double @sqrt(double noundef %div90) #13, !tbaa !54
  %mul92 = fmul double %mul83, %call91
  %ekt93 = getelementptr inbounds nuw %"class.QuantLib::LPP2HestonExpansion", ptr %this1, i32 0, i32 2
  %101 = load double, ptr %ekt93, align 8, !tbaa !84
  %102 = load double, ptr %kappa.addr, align 8, !tbaa !53
  %103 = load double, ptr %t.addr, align 8, !tbaa !53
  %104 = call double @llvm.fmuladd.f64(double %102, double %103, double -1.000000e+00)
  %105 = call double @llvm.fmuladd.f64(double %101, double %104, double 1.000000e+00)
  %106 = load double, ptr %theta.addr, align 8, !tbaa !53
  %ekt97 = getelementptr inbounds nuw %"class.QuantLib::LPP2HestonExpansion", ptr %this1, i32 0, i32 2
  %107 = load double, ptr %ekt97, align 8, !tbaa !84
  %add98 = fadd double -1.000000e+00, %107
  %108 = load double, ptr %y.addr, align 8, !tbaa !53
  %mul99 = fmul double %add98, %108
  %109 = call double @llvm.fmuladd.f64(double %105, double %106, double %mul99)
  %call100 = call noundef double @_ZN8QuantLibL7fastpowEdi(double noundef %109, i32 noundef 2)
  %mul101 = fmul double %mul92, %call100
  %div102 = fdiv double %mul80, %mul101
  ret double %div102
}