; Function Attrs: mustprogress nofree nounwind willreturn memory(write, argmem: readwrite) uwtable
define noundef double @_ZNK8QuantLib19LPP2HestonExpansion2z1Edddddd(ptr nocapture noundef nonnull readonly align 8 dereferenceable(64) %this, double noundef %t, double noundef %kappa, double noundef %theta, double noundef %delta, double noundef %y, double noundef %rho) local_unnamed_addr #11 align 2 {
entry:
  %mul = fmul double %delta, %rho
  %ekt = getelementptr inbounds nuw i8, ptr %this, i64 32
  %0 = load double, ptr %ekt, align 8, !tbaa !120
  %add = fadd double %0, -1.000000e+00
  %square = fmul double %add, %add
  %mul2 = fmul double %delta, %square
  %mul3 = fmul double %rho, %mul2
  %neg = fneg double %y
  %1 = tail call double @llvm.fmuladd.f64(double %theta, double 4.000000e+00, double %neg)
  %mul8 = fmul double %0, 2.000000e+00
  %call.i.i63 = tail call noundef double @pow(double noundef %kappa, double noundef 3.000000e+00) #29, !tbaa !112
  %mul10 = fmul double %mul8, %call.i.i63
  %square70 = fmul double %t, %t
  %mul12 = fmul double %square70, %mul10
  %mul13 = fmul double %theta, %mul12
  %2 = tail call double @llvm.fmuladd.f64(double %0, double 2.000000e+00, double 2.000000e+00)
  %3 = tail call double @llvm.fmuladd.f64(double %mul, double %t, double %2)
  %4 = tail call double @llvm.fmuladd.f64(double %mul, double %t, double 2.000000e+00)
  %neg22 = fmul double %4, %neg
  %5 = tail call double @llvm.fmuladd.f64(double %3, double %theta, double %neg22)
  %mul23 = fmul double %5, %mul13
  %6 = fneg double %1
  %neg24 = fmul double %mul3, %6
  %7 = tail call double @llvm.fmuladd.f64(double %neg24, double %y, double %mul23)
  %mul27 = fmul double %add, 2.000000e+00
  %mul28 = fmul double %kappa, %mul27
  %8 = tail call double @llvm.fmuladd.f64(double %theta, double 2.000000e+00, double %neg)
  %9 = tail call double @llvm.fmuladd.f64(double %mul, double %t, double -2.000000e+00)
  %mul36 = fmul double %9, %add
  %10 = tail call double @llvm.fmuladd.f64(double %0, double 2.000000e+00, double -2.000000e+00)
  %11 = tail call double @llvm.fmuladd.f64(double %mul, double %t, double %10)
  %mul42 = fmul double %y, %11
  %12 = tail call double @llvm.fmuladd.f64(double %mul36, double %theta, double %mul42)
  %13 = fneg double %8
  %neg44 = fmul double %mul28, %13
  %14 = tail call double @llvm.fmuladd.f64(double %neg44, double %12, double %7)
  %square71 = fmul double %kappa, %kappa
  %mul46 = fmul double %t, %square71
  %15 = tail call double @llvm.fmuladd.f64(double %mul, double %t, double -4.000000e+00)
  %16 = tail call double @llvm.fmuladd.f64(double %mul, double %t, double -1.200000e+01)
  %17 = tail call double @llvm.fmuladd.f64(double %0, double %16, double %15)
  %mul55 = fmul double %add, %17
  %square72 = fmul double %theta, %theta
  %e2kt = getelementptr inbounds nuw i8, ptr %this, i64 40
  %18 = load double, ptr %e2kt, align 8, !tbaa !123
  %19 = tail call double @llvm.fmuladd.f64(double %18, double 4.000000e+00, double -4.000000e+00)
  %20 = tail call double @llvm.fmuladd.f64(double %mul, double %t, double %19)
  %mul61 = fmul double %delta, 3.000000e+00
  %mul63 = fmul double %mul61, %0
  %mul64 = fmul double %rho, %mul63
  %21 = tail call double @llvm.fmuladd.f64(double %mul64, double %t, double %20)
  %mul66 = fmul double %21, 2.000000e+00
  %mul67 = fmul double %theta, %mul66
  %mul68 = fmul double %y, %mul67
  %22 = tail call double @llvm.fmuladd.f64(double %mul55, double %square72, double %mul68)
  %23 = tail call double @llvm.fmuladd.f64(double %mul8, double %4, double %15)
  %square73 = fmul double %y, %y
  %neg78 = fneg double %23
  %24 = tail call double @llvm.fmuladd.f64(double %neg78, double %square73, double %22)
  %25 = tail call double @llvm.fmuladd.f64(double %mul46, double %24, double %14)
  %mul80 = fmul double %mul, %25
  %mul82 = fmul double %square71, 8.000000e+00
  %mul83 = fmul double %t, %mul82
  %fneg = fneg double %theta
  %mul84 = fmul double %t, %kappa
  %26 = tail call double @llvm.fmuladd.f64(double %mul84, double %theta, double %fneg)
  %sub = fsub double %theta, %y
  %div = fdiv double %sub, %0
  %add87 = fadd double %26, %div
  %add88 = fadd double %y, %add87
  %div90 = fdiv double %add88, %mul84
  %call91 = tail call double @sqrt(double noundef %div90) #29, !tbaa !112
  %mul92 = fmul double %mul83, %call91
  %27 = tail call double @llvm.fmuladd.f64(double %kappa, double %t, double -1.000000e+00)
  %28 = tail call double @llvm.fmuladd.f64(double %0, double %27, double 1.000000e+00)
  %mul99 = fmul double %y, %add
  %29 = tail call double @llvm.fmuladd.f64(double %28, double %theta, double %mul99)
  %square75 = fmul double %29, %29
  %mul101 = fmul double %mul92, %square75
  %div102 = fdiv double %mul80, %mul101
  ret double %div102
}